target datalayout = "e-m:e-p270:32:32-p271:32:32-p272:64:64-i64:64-i128:128-f80:128-n8:16:32:64-S128"
target triple = "x86_64-pc-linux-gnu"

%"struct.boost::atomics::detail::once_flag" = type { i8 }
%"struct.boost::atomics::detail::lock_pool::(anonymous namespace)::wait_state_list::header" = type { i64, i64 }

@_ZN5boost7atomics6detail9lock_pool12_GLOBAL__N_125g_pool_cleanup_registeredE = internal global %"struct.boost::atomics::detail::once_flag" zeroinitializer, align 1

; Function Attrs: alwaysinline mustprogress nounwind uwtable
define linkonce_odr hidden noundef i32 @_ZN5boost7atomics6detail27convert_memory_order_to_gccENS_12memory_orderE(i32 noundef %0) #2 comdat {
  %2 = alloca i32, align 4
  store i32 %0, ptr %2, align 4, !tbaa !35
  %3 = load i32, ptr %2, align 4, !tbaa !35
  %4 = icmp eq i32 %3, 0
  br i1 %4, label %5, label %6

5:                                                ; preds = %1
  br label %28

6:                                                ; preds = %1
  %7 = load i32, ptr %2, align 4, !tbaa !35
  %8 = icmp eq i32 %7, 1
  br i1 %8, label %9, label %10

9:                                                ; preds = %6
  br label %26

10:                                               ; preds = %6
  %11 = load i32, ptr %2, align 4, !tbaa !35
  %12 = icmp eq i32 %11, 2
  br i1 %12, label %13, label %14

13:                                               ; preds = %10
  br label %24

14:                                               ; preds = %10
  %15 = load i32, ptr %2, align 4, !tbaa !35
  %16 = icmp eq i32 %15, 4
  br i1 %16, label %17, label %18

17:                                               ; preds = %14
  br label %22

18:                                               ; preds = %14
  %19 = load i32, ptr %2, align 4, !tbaa !35
  %20 = icmp eq i32 %19, 6
  %21 = select i1 %20, i32 4, i32 5
  br label %22

22:                                               ; preds = %18, %17
  %23 = phi i32 [ 3, %17 ], [ %21, %18 ]
  br label %24

24:                                               ; preds = %22, %13
  %25 = phi i32 [ 2, %13 ], [ %23, %22 ]
  br label %26

26:                                               ; preds = %24, %9
  %27 = phi i32 [ 1, %9 ], [ %25, %24 ]
  br label %28

28:                                               ; preds = %26, %5
  %29 = phi i32 [ 0, %5 ], [ %27, %26 ]
  ret i32 %29
}

; Function Attrs: mustprogress nounwind uwtable
define internal noundef ptr @_ZN5boost7atomics6detail9lock_pool12_GLOBAL__N_115wait_state_list15get_wait_statesEPPVKvm(ptr noundef %0, i64 noundef %1) #0 align 2 {
  %3 = alloca ptr, align 8
  %4 = alloca i64, align 8
  store ptr %0, ptr %3, align 8, !tbaa !3
  store i64 %1, ptr %4, align 8, !tbaa !7
  %5 = load ptr, ptr %3, align 8, !tbaa !3
  %6 = load i64, ptr %4, align 8, !tbaa !7
  %7 = getelementptr inbounds nuw ptr, ptr %5, i64 %6
  ret ptr %7
}

; Function Attrs: mustprogress nounwind uwtable
define internal noundef ptr @_ZN5boost7atomics6detail9lock_pool12_GLOBAL__N_115wait_state_list19get_atomic_pointersEPNS4_6headerE(ptr noundef %0) #0 align 2 {
  %2 = alloca ptr, align 8
  store ptr %0, ptr %2, align 8, !tbaa !3
  %3 = load ptr, ptr %2, align 8, !tbaa !3
  %4 = getelementptr inbounds nuw i8, ptr %3, i64 16
  ret ptr %4
}

; Function Attrs: inlinehint mustprogress nounwind uwtable
define linkonce_odr hidden noundef ptr @_ZN5boost9alignment13aligned_allocEmm(i64 noundef %0, i64 noundef %1) #3 comdat {
  %3 = alloca i64, align 8
  %4 = alloca i64, align 8
  %5 = alloca ptr, align 8
  store i64 %0, ptr %3, align 8, !tbaa !7
  store i64 %1, ptr %4, align 8, !tbaa !7
  %6 = load i64, ptr %3, align 8, !tbaa !7
  %7 = icmp ult i64 %6, 8
  br i1 %7, label %8, label %9

8:                                                ; preds = %2
  store i64 8, ptr %3, align 8, !tbaa !7
  br label %9

9:                                                ; preds = %8, %2
  call void @llvm.lifetime.start.p0(i64 8, ptr %5) #14
  %10 = load i64, ptr %3, align 8, !tbaa !7
  %11 = load i64, ptr %4, align 8, !tbaa !7
  %12 = call i32 @posix_memalign(ptr noundef %5, i64 noundef %10, i64 noundef %11) #14
  %13 = icmp ne i32 %12, 0
  br i1 %13, label %14, label %15

14:                                               ; preds = %9
  store ptr null, ptr %5, align 8, !tbaa !3
  br label %15

15:                                               ; preds = %14, %9
  %16 = load ptr, ptr %5, align 8, !tbaa !3
  call void @llvm.lifetime.end.p0(i64 8, ptr %5) #14
  ret ptr %16
}

; Function Attrs: alwaysinline mustprogress nounwind uwtable
define linkonce_odr hidden noundef zeroext i8 @_ZN5boost7atomics6detail26core_operations_gcc_atomicILm1ELb0ELb0EE8exchangeERVhhNS_12memory_orderE(ptr noundef nonnull align 1 dereferenceable(1) %0, i8 noundef zeroext %1, i32 noundef %2) #2 comdat align 2 {
  %4 = alloca ptr, align 8
  %5 = alloca i8, align 1
  %6 = alloca i32, align 4
  %7 = alloca i8, align 1
  %8 = alloca i8, align 1
  store ptr %0, ptr %4, align 8, !tbaa !3
  store i8 %1, ptr %5, align 1, !tbaa !13
  store i32 %2, ptr %6, align 4, !tbaa !35
  %9 = load ptr, ptr %4, align 8, !tbaa !3
  %10 = load i32, ptr %6, align 4, !tbaa !35
  %11 = call noundef i32 @_ZN5boost7atomics6detail27convert_memory_order_to_gccENS_12memory_orderE(i32 noundef %10) #14
  %12 = load i8, ptr %5, align 1, !tbaa !13
  store i8 %12, ptr %7, align 1, !tbaa !13
  switch i32 %11, label %13 [
    i32 1, label %16
    i32 2, label %16
    i32 3, label %19
    i32 4, label %22
    i32 5, label %25
  ]

13:                                               ; preds = %3
  %14 = load i8, ptr %7, align 1
  %15 = atomicrmw volatile xchg ptr %9, i8 %14 monotonic, align 1
  store i8 %15, ptr %8, align 1
  br label %28

16:                                               ; preds = %3, %3
  %17 = load i8, ptr %7, align 1
  %18 = atomicrmw volatile xchg ptr %9, i8 %17 acquire, align 1
  store i8 %18, ptr %8, align 1
  br label %28

19:                                               ; preds = %3
  %20 = load i8, ptr %7, align 1
  %21 = atomicrmw volatile xchg ptr %9, i8 %20 release, align 1
  store i8 %21, ptr %8, align 1
  br label %28

22:                                               ; preds = %3
  %23 = load i8, ptr %7, align 1
  %24 = atomicrmw volatile xchg ptr %9, i8 %23 acq_rel, align 1
  store i8 %24, ptr %8, align 1
  br label %28

25:                                               ; preds = %3
  %26 = load i8, ptr %7, align 1
  %27 = atomicrmw volatile xchg ptr %9, i8 %26 seq_cst, align 1
  store i8 %27, ptr %8, align 1
  br label %28

28:                                               ; preds = %25, %22, %19, %16, %13
  %29 = load i8, ptr %8, align 1, !tbaa !13
  ret i8 %29
}

; Function Attrs: alwaysinline mustprogress nounwind uwtable
define linkonce_odr hidden noundef zeroext i8 @_ZN5boost7atomics6detail26core_operations_gcc_atomicILm1ELb0ELb0EE4loadERVKhNS_12memory_orderE(ptr noundef nonnull align 1 dereferenceable(1) %0, i32 noundef %1) #2 comdat align 2 {
  %3 = alloca ptr, align 8
  %4 = alloca i32, align 4
  %5 = alloca i8, align 1
  store ptr %0, ptr %3, align 8, !tbaa !3
  store i32 %1, ptr %4, align 4, !tbaa !35
  %6 = load ptr, ptr %3, align 8, !tbaa !3
  %7 = load i32, ptr %4, align 4, !tbaa !35
  %8 = call noundef i32 @_ZN5boost7atomics6detail27convert_memory_order_to_gccENS_12memory_orderE(i32 noundef %7) #14
  switch i32 %8, label %9 [
    i32 1, label %11
    i32 2, label %11
    i32 5, label %13
  ]

9:                                                ; preds = %2
  %10 = load atomic volatile i8, ptr %6 monotonic, align 1
  store i8 %10, ptr %5, align 1
  br label %15

11:                                               ; preds = %2, %2
  %12 = load atomic volatile i8, ptr %6 acquire, align 1
  store i8 %12, ptr %5, align 1
  br label %15

13:                                               ; preds = %2
  %14 = load atomic volatile i8, ptr %6 seq_cst, align 1
  store i8 %14, ptr %5, align 1
  br label %15

15:                                               ; preds = %13, %11, %9
  %16 = load i8, ptr %5, align 1, !tbaa !13
  ret i8 %16
}

; Function Attrs: mustprogress nounwind uwtable
define internal noundef ptr @_ZN5boost7atomics6detail9lock_pool12_GLOBAL__N_115wait_state_list15allocate_bufferEmPNS4_6headerE(i64 noundef %0, ptr noundef %1) #0 align 2 {
  %3 = alloca ptr, align 8
  %4 = alloca i64, align 8
  %5 = alloca ptr, align 8
  %6 = alloca i64, align 8
  %7 = alloca ptr, align 8
  %8 = alloca i32, align 4
  %9 = alloca ptr, align 8
  %10 = alloca ptr, align 8
  %11 = alloca ptr, align 8
  %12 = alloca ptr, align 8
  %13 = alloca ptr, align 8
  store i64 %0, ptr %4, align 8, !tbaa !7
  store ptr %1, ptr %5, align 8, !tbaa !3
  %14 = call noundef zeroext i8 @_ZN5boost7atomics6detail26core_operations_gcc_atomicILm1ELb0ELb0EE4loadERVKhNS_12memory_orderE(ptr noundef nonnull align 1 dereferenceable(1) @_ZN5boost7atomics6detail9lock_pool12_GLOBAL__N_125g_pool_cleanup_registeredE, i32 noundef 0) #14
  %15 = zext i8 %14 to i32
  %16 = icmp eq i32 %15, 0
  %17 = zext i1 %16 to i64
  %18 = call i64 @llvm.expect.i64(i64 %17, i64 0)
  %19 = icmp ne i64 %18, 0
  br i1 %19, label %20, label %27

20:                                               ; preds = %2
  %21 = call noundef zeroext i8 @_ZN5boost7atomics6detail26core_operations_gcc_atomicILm1ELb0ELb0EE8exchangeERVhhNS_12memory_orderE(ptr noundef nonnull align 1 dereferenceable(1) @_ZN5boost7atomics6detail9lock_pool12_GLOBAL__N_125g_pool_cleanup_registeredE, i8 noundef zeroext 1, i32 noundef 0) #14
  %22 = zext i8 %21 to i32
  %23 = icmp eq i32 %22, 0
  br i1 %23, label %24, label %26

24:                                               ; preds = %20
  %25 = call i32 @atexit(ptr noundef @_ZN5boost7atomics6detail9lock_pool12_GLOBAL__N_117cleanup_lock_poolEv) #14
  br label %26

26:                                               ; preds = %24, %20
  br label %27

27:                                               ; preds = %26, %2
  call void @llvm.lifetime.start.p0(i64 8, ptr %6) #14
  %28 = load i64, ptr %4, align 8, !tbaa !7
  %29 = mul i64 %28, 8
  %30 = mul i64 %29, 2
  %31 = add i64 16, %30
  store i64 %31, ptr %6, align 8, !tbaa !7
  call void @llvm.lifetime.start.p0(i64 8, ptr %7) #14
  %32 = load i64, ptr %6, align 8, !tbaa !7
  %33 = call noundef ptr @_ZN5boost9alignment13aligned_allocEmm(i64 noundef 16, i64 noundef %32) #14
  store ptr %33, ptr %7, align 8, !tbaa !3
  %34 = load ptr, ptr %7, align 8, !tbaa !3
  %35 = icmp eq ptr %34, null
  %36 = zext i1 %35 to i64
  %37 = call i64 @llvm.expect.i64(i64 %36, i64 0)
  %38 = icmp ne i64 %37, 0
  br i1 %38, label %39, label %40

39:                                               ; preds = %27
  store ptr null, ptr %3, align 8
  store i32 1, ptr %8, align 4
  br label %109

40:                                               ; preds = %27
  call void @llvm.lifetime.start.p0(i64 8, ptr %9) #14
  %41 = load ptr, ptr %7, align 8, !tbaa !3
  store ptr %41, ptr %9, align 8, !tbaa !3
  call void @llvm.lifetime.start.p0(i64 8, ptr %10) #14
  %42 = load ptr, ptr %9, align 8, !tbaa !3
  %43 = call noundef ptr @_ZN5boost7atomics6detail9lock_pool12_GLOBAL__N_115wait_state_list19get_atomic_pointersEPNS4_6headerE(ptr noundef %42) #14
  store ptr %43, ptr %10, align 8, !tbaa !3
  call void @llvm.lifetime.start.p0(i64 8, ptr %11) #14
  %44 = load ptr, ptr %10, align 8, !tbaa !3
  %45 = load i64, ptr %4, align 8, !tbaa !7
  %46 = call noundef ptr @_ZN5boost7atomics6detail9lock_pool12_GLOBAL__N_115wait_state_list15get_wait_statesEPPVKvm(ptr noundef %44, i64 noundef %45) #14
  store ptr %46, ptr %11, align 8, !tbaa !3
  %47 = load ptr, ptr %5, align 8, !tbaa !3
  %48 = icmp ne ptr %47, null
  %49 = zext i1 %48 to i64
  %50 = call i64 @llvm.expect.i64(i64 %49, i64 1)
  %51 = icmp ne i64 %50, 0
  br i1 %51, label %52, label %101

52:                                               ; preds = %40
  %53 = load ptr, ptr %5, align 8, !tbaa !3
  %54 = getelementptr inbounds nuw %"struct.boost::atomics::detail::lock_pool::(anonymous namespace)::wait_state_list::header", ptr %53, i32 0, i32 0
  %55 = load i64, ptr %54, align 8, !tbaa !21
  %56 = load ptr, ptr %9, align 8, !tbaa !3
  %57 = getelementptr inbounds nuw %"struct.boost::atomics::detail::lock_pool::(anonymous namespace)::wait_state_list::header", ptr %56, i32 0, i32 0
  store i64 %55, ptr %57, align 8, !tbaa !21
  call void @llvm.lifetime.start.p0(i64 8, ptr %12) #14
  %58 = load ptr, ptr %5, align 8, !tbaa !3
  %59 = call noundef ptr @_ZN5boost7atomics6detail9lock_pool12_GLOBAL__N_115wait_state_list19get_atomic_pointersEPNS4_6headerE(ptr noundef %58) #14
  store ptr %59, ptr %12, align 8, !tbaa !3
  %60 = load ptr, ptr %10, align 8, !tbaa !3
  %61 = load ptr, ptr %12, align 8, !tbaa !3
  %62 = load ptr, ptr %5, align 8, !tbaa !3
  %63 = getelementptr inbounds nuw %"struct.boost::atomics::detail::lock_pool::(anonymous namespace)::wait_state_list::header", ptr %62, i32 0, i32 0
  %64 = load i64, ptr %63, align 8, !tbaa !21
  %65 = mul i64 %64, 8
  call void @llvm.memcpy.p0.p0.i64(ptr align 8 %60, ptr align 8 %61, i64 %65, i1 false)
  %66 = load ptr, ptr %10, align 8, !tbaa !3
  %67 = load ptr, ptr %5, align 8, !tbaa !3
  %68 = getelementptr inbounds nuw %"struct.boost::atomics::detail::lock_pool::(anonymous namespace)::wait_state_list::header", ptr %67, i32 0, i32 0
  %69 = load i64, ptr %68, align 8, !tbaa !21
  %70 = mul i64 %69, 8
  %71 = getelementptr inbounds nuw ptr, ptr %66, i64 %70
  %72 = load i64, ptr %4, align 8, !tbaa !7
  %73 = load ptr, ptr %5, align 8, !tbaa !3
  %74 = getelementptr inbounds nuw %"struct.boost::atomics::detail::lock_pool::(anonymous namespace)::wait_state_list::header", ptr %73, i32 0, i32 0
  %75 = load i64, ptr %74, align 8, !tbaa !21
  %76 = sub i64 %72, %75
  %77 = mul i64 %76, 8
  call void @llvm.memset.p0.i64(ptr align 8 %71, i8 0, i64 %77, i1 false)
  call void @llvm.lifetime.start.p0(i64 8, ptr %13) #14
  %78 = load ptr, ptr %12, align 8, !tbaa !3
  %79 = load ptr, ptr %5, align 8, !tbaa !3
  %80 = getelementptr inbounds nuw %"struct.boost::atomics::detail::lock_pool::(anonymous namespace)::wait_state_list::header", ptr %79, i32 0, i32 1
  %81 = load i64, ptr %80, align 8, !tbaa !23
  %82 = call noundef ptr @_ZN5boost7atomics6detail9lock_pool12_GLOBAL__N_115wait_state_list15get_wait_statesEPPVKvm(ptr noundef %78, i64 noundef %81) #14
  store ptr %82, ptr %13, align 8, !tbaa !3
  %83 = load ptr, ptr %11, align 8, !tbaa !3
  %84 = load ptr, ptr %13, align 8, !tbaa !3
  %85 = load ptr, ptr %5, align 8, !tbaa !3
  %86 = getelementptr inbounds nuw %"struct.boost::atomics::detail::lock_pool::(anonymous namespace)::wait_state_list::header", ptr %85, i32 0, i32 1
  %87 = load i64, ptr %86, align 8, !tbaa !23
  %88 = mul i64 %87, 8
  call void @llvm.memcpy.p0.p0.i64(ptr align 8 %83, ptr align 8 %84, i64 %88, i1 false)
  %89 = load ptr, ptr %11, align 8, !tbaa !3
  %90 = load ptr, ptr %5, align 8, !tbaa !3
  %91 = getelementptr inbounds nuw %"struct.boost::atomics::detail::lock_pool::(anonymous namespace)::wait_state_list::header", ptr %90, i32 0, i32 1
  %92 = load i64, ptr %91, align 8, !tbaa !23
  %93 = mul i64 %92, 8
  %94 = getelementptr inbounds nuw ptr, ptr %89, i64 %93
  %95 = load i64, ptr %4, align 8, !tbaa !7
  %96 = load ptr, ptr %5, align 8, !tbaa !3
  %97 = getelementptr inbounds nuw %"struct.boost::atomics::detail::lock_pool::(anonymous namespace)::wait_state_list::header", ptr %96, i32 0, i32 1
  %98 = load i64, ptr %97, align 8, !tbaa !23
  %99 = sub i64 %95, %98
  %100 = mul i64 %99, 8
  call void @llvm.memset.p0.i64(ptr align 8 %94, i8 0, i64 %100, i1 false)
  call void @llvm.lifetime.end.p0(i64 8, ptr %13) #14
  call void @llvm.lifetime.end.p0(i64 8, ptr %12) #14
  br label %104

101:                                              ; preds = %40
  %102 = load ptr, ptr %7, align 8, !tbaa !3
  %103 = load i64, ptr %6, align 8, !tbaa !7
  call void @llvm.memset.p0.i64(ptr align 1 %102, i8 0, i64 %103, i1 false)
  br label %104

104:                                              ; preds = %101, %52
  %105 = load i64, ptr %4, align 8, !tbaa !7
  %106 = load ptr, ptr %9, align 8, !tbaa !3
  %107 = getelementptr inbounds nuw %"struct.boost::atomics::detail::lock_pool::(anonymous namespace)::wait_state_list::header", ptr %106, i32 0, i32 1
  store i64 %105, ptr %107, align 8, !tbaa !23
  %108 = load ptr, ptr %9, align 8, !tbaa !3
  store ptr %108, ptr %3, align 8
  store i32 1, ptr %8, align 4
  call void @llvm.lifetime.end.p0(i64 8, ptr %11) #14
  call void @llvm.lifetime.end.p0(i64 8, ptr %10) #14
  call void @llvm.lifetime.end.p0(i64 8, ptr %9) #14
  br label %109

109:                                              ; preds = %104, %39
  call void @llvm.lifetime.end.p0(i64 8, ptr %7) #14
  call void @llvm.lifetime.end.p0(i64 8, ptr %6) #14
  %110 = load ptr, ptr %3, align 8
  ret ptr %110
}