; Function Attrs: mustprogress nofree nounwind uwtable
define internal fastcc noundef ptr @_ZN5boost7atomics6detail9lock_pool12_GLOBAL__N_115wait_state_list15allocate_bufferEmPNS4_6headerE(i64 noundef %0, ptr noundef readonly %1) unnamed_addr #5 align 2 {
  %3 = alloca ptr, align 8
  %4 = load atomic volatile i8, ptr @_ZN5boost7atomics6detail9lock_pool12_GLOBAL__N_125g_pool_cleanup_registeredE monotonic, align 1
  %5 = icmp eq i8 %4, 0
  br i1 %5, label %6, label %11, !prof !16

6:                                                ; preds = %2
  %7 = atomicrmw volatile xchg ptr @_ZN5boost7atomics6detail9lock_pool12_GLOBAL__N_125g_pool_cleanup_registeredE, i8 1 monotonic, align 1
  %8 = icmp eq i8 %7, 0
  br i1 %8, label %9, label %11

9:                                                ; preds = %6
  %10 = tail call i32 @atexit(ptr noundef nonnull @_ZN5boost7atomics6detail9lock_pool12_GLOBAL__N_117cleanup_lock_poolEv) #17
  br label %11

11:                                               ; preds = %6, %9, %2
  %12 = shl i64 %0, 4
  %13 = add i64 %12, 16
  call void @llvm.lifetime.start.p0(i64 8, ptr nonnull %3) #17
  %14 = call i32 @posix_memalign(ptr noundef nonnull %3, i64 noundef 16, i64 noundef %13) #17
  %.not.i = icmp ne i32 %14, 0
  %.pre.i = load ptr, ptr %3, align 8
  call void @llvm.lifetime.end.p0(i64 8, ptr nonnull %3) #17
  %15 = icmp eq ptr %.pre.i, null
  %16 = select i1 %.not.i, i1 true, i1 %15
  br i1 %16, label %39, label %17, !prof !16

17:                                               ; preds = %11
  %.not = icmp eq ptr %1, null
  br i1 %.not, label %36, label %18, !prof !16

18:                                               ; preds = %17
  %19 = getelementptr inbounds nuw i8, ptr %.pre.i, i64 16
  %20 = getelementptr inbounds nuw ptr, ptr %19, i64 %0
  %21 = load i64, ptr %1, align 8, !tbaa !17
  store i64 %21, ptr %.pre.i, align 8, !tbaa !17
  %22 = getelementptr inbounds nuw i8, ptr %1, i64 16
  %23 = shl i64 %21, 3
  call void @llvm.memcpy.p0.p0.i64(ptr nonnull align 8 %19, ptr nonnull align 8 %22, i64 %23, i1 false)
  %24 = load i64, ptr %1, align 8, !tbaa !17
  %.idx = shl i64 %24, 6
  %25 = getelementptr inbounds nuw i8, ptr %19, i64 %.idx
  %26 = sub i64 %0, %24
  %27 = shl i64 %26, 3
  call void @llvm.memset.p0.i64(ptr nonnull align 8 %25, i8 0, i64 %27, i1 false)
  %28 = getelementptr inbounds nuw i8, ptr %1, i64 8
  %29 = load i64, ptr %28, align 8, !tbaa !20
  %30 = getelementptr inbounds nuw ptr, ptr %22, i64 %29
  %31 = shl i64 %29, 3
  call void @llvm.memcpy.p0.p0.i64(ptr nonnull align 8 %20, ptr nonnull align 8 %30, i64 %31, i1 false)
  %32 = load i64, ptr %28, align 8, !tbaa !20
  %.idx34 = shl i64 %32, 6
  %33 = getelementptr inbounds nuw i8, ptr %20, i64 %.idx34
  %34 = sub i64 %0, %32
  %35 = shl i64 %34, 3
  call void @llvm.memset.p0.i64(ptr nonnull align 8 %33, i8 0, i64 %35, i1 false)
  br label %37

36:                                               ; preds = %17
  call void @llvm.memset.p0.i64(ptr nonnull align 1 %.pre.i, i8 0, i64 %13, i1 false)
  br label %37

37:                                               ; preds = %36, %18
  %38 = getelementptr inbounds nuw i8, ptr %.pre.i, i64 8
  store i64 %0, ptr %38, align 8, !tbaa !20
  br label %39

39:                                               ; preds = %11, %37
  %.0 = phi ptr [ %.pre.i, %37 ], [ null, %11 ]
  ret ptr %.0
}